; Function Attrs: mustprogress nounwind uwtable
define hidden void @_ZN13MethodMatcher10print_baseEP12outputStream(ptr nocapture noundef nonnull readonly align 8 dereferenceable(32) %0, ptr noundef %1) local_unnamed_addr #1 align 2 {
  %3 = tail call align 8 ptr @llvm.threadlocal.address.p0(ptr align 8 @_ZN6Thread12_thr_currentE)
  %4 = load ptr, ptr %3, align 8
  %5 = getelementptr inbounds i8, ptr %4, i64 800
  %6 = load ptr, ptr %5, align 8
  %7 = getelementptr inbounds i8, ptr %6, i64 24
  %8 = load ptr, ptr %7, align 8
  %9 = getelementptr inbounds i8, ptr %6, i64 32
  %10 = load ptr, ptr %9, align 8
  %11 = getelementptr inbounds i8, ptr %6, i64 40
  %12 = load ptr, ptr %11, align 8
  %13 = getelementptr inbounds i8, ptr %6, i64 8
  %14 = load i64, ptr %13, align 8
  %15 = load ptr, ptr %0, align 8
  %16 = getelementptr inbounds i8, ptr %0, i64 24
  %17 = load i32, ptr %16, align 8
  %.off.i = add i32 %17, -2
  %switch.i = icmp ult i32 %.off.i, 3
  br i1 %switch.i, label %18, label %19

18:                                               ; preds = %2
  tail call void (ptr, ptr, ...) @_ZN12outputStream5printEPKcz(ptr noundef nonnull align 8 dereferenceable(56) %1, ptr noundef nonnull @.str.16) #14
  %.not.i = icmp eq i32 %17, 4
  br i1 %.not.i, label %_ZN13MethodMatcher12print_symbolEP12outputStreamP6SymbolNS_4ModeE.exit, label %19

19:                                               ; preds = %18, %2
  tail call void @_ZNK6Symbol13print_utf8_onEP12outputStream(ptr noundef nonnull align 4 dereferenceable(8) %15, ptr noundef %1) #14
  %20 = and i32 %17, -3
  %or.cond5.i = icmp eq i32 %20, 1
  br i1 %or.cond5.i, label %21, label %_ZN13MethodMatcher12print_symbolEP12outputStreamP6SymbolNS_4ModeE.exit

21:                                               ; preds = %19
  tail call void (ptr, ptr, ...) @_ZN12outputStream5printEPKcz(ptr noundef nonnull align 8 dereferenceable(56) %1, ptr noundef nonnull @.str.16) #14
  br label %_ZN13MethodMatcher12print_symbolEP12outputStreamP6SymbolNS_4ModeE.exit

_ZN13MethodMatcher12print_symbolEP12outputStreamP6SymbolNS_4ModeE.exit: ; preds = %18, %19, %21
  tail call void (ptr, ptr, ...) @_ZN12outputStream5printEPKcz(ptr noundef nonnull align 8 dereferenceable(56) %1, ptr noundef nonnull @.str.17) #14
  %22 = getelementptr inbounds i8, ptr %0, i64 8
  %23 = load ptr, ptr %22, align 8
  %24 = getelementptr inbounds i8, ptr %0, i64 28
  %25 = load i32, ptr %24, align 4
  %.off.i5 = add i32 %25, -2
  %switch.i6 = icmp ult i32 %.off.i5, 3
  br i1 %switch.i6, label %26, label %27

26:                                               ; preds = %_ZN13MethodMatcher12print_symbolEP12outputStreamP6SymbolNS_4ModeE.exit
  tail call void (ptr, ptr, ...) @_ZN12outputStream5printEPKcz(ptr noundef nonnull align 8 dereferenceable(56) %1, ptr noundef nonnull @.str.16) #14
  %.not.i8 = icmp eq i32 %25, 4
  br i1 %.not.i8, label %_ZN13MethodMatcher12print_symbolEP12outputStreamP6SymbolNS_4ModeE.exit9, label %27

27:                                               ; preds = %26, %_ZN13MethodMatcher12print_symbolEP12outputStreamP6SymbolNS_4ModeE.exit
  tail call void @_ZNK6Symbol13print_utf8_onEP12outputStream(ptr noundef nonnull align 4 dereferenceable(8) %23, ptr noundef nonnull %1) #14
  %28 = and i32 %25, -3
  %or.cond5.i7 = icmp eq i32 %28, 1
  br i1 %or.cond5.i7, label %29, label %_ZN13MethodMatcher12print_symbolEP12outputStreamP6SymbolNS_4ModeE.exit9

29:                                               ; preds = %27
  tail call void (ptr, ptr, ...) @_ZN12outputStream5printEPKcz(ptr noundef nonnull align 8 dereferenceable(56) %1, ptr noundef nonnull @.str.16) #14
  br label %_ZN13MethodMatcher12print_symbolEP12outputStreamP6SymbolNS_4ModeE.exit9

_ZN13MethodMatcher12print_symbolEP12outputStreamP6SymbolNS_4ModeE.exit9: ; preds = %26, %27, %29
  %30 = getelementptr inbounds i8, ptr %0, i64 16
  %31 = load ptr, ptr %30, align 8
  %.not = icmp eq ptr %31, null
  br i1 %.not, label %33, label %32

32:                                               ; preds = %_ZN13MethodMatcher12print_symbolEP12outputStreamP6SymbolNS_4ModeE.exit9
  tail call void @_ZNK6Symbol13print_utf8_onEP12outputStream(ptr noundef nonnull align 4 dereferenceable(8) %31, ptr noundef nonnull %1) #14
  br label %33

33:                                               ; preds = %32, %_ZN13MethodMatcher12print_symbolEP12outputStreamP6SymbolNS_4ModeE.exit9
  %34 = load ptr, ptr %8, align 8
  %.not.i.i.i.i = icmp eq ptr %34, null
  br i1 %.not.i.i.i.i, label %36, label %35

35:                                               ; preds = %33
  tail call void @_ZN5Arena17set_size_in_bytesEm(ptr noundef nonnull align 8 dereferenceable(48) %6, i64 noundef %14) #14
  tail call void @_ZN5Chunk9next_chopEPS_(ptr noundef nonnull %8) #14
  br label %36

36:                                               ; preds = %35, %33
  %37 = load ptr, ptr %9, align 8
  %.not8.i.i.i.i = icmp eq ptr %37, %10
  br i1 %.not8.i.i.i.i, label %_ZN12ResourceMarkD2Ev.exit, label %38

38:                                               ; preds = %36
  store ptr %8, ptr %7, align 8
  store ptr %10, ptr %9, align 8
  store ptr %12, ptr %11, align 8
  br label %_ZN12ResourceMarkD2Ev.exit

_ZN12ResourceMarkD2Ev.exit:                       ; preds = %36, %38
  ret void
}